target datalayout = "e-m:e-p270:32:32-p271:32:32-p272:64:64-i64:64-i128:128-f80:128-n8:16:32:64-S128"
target triple = "x86_64-pc-linux-gnu"

%struct.RelationData = type { %struct.RelFileLocator, ptr, i32, i32, i8, i8, i8, i8, i8, i32, i32, i32, i32, ptr, ptr, i32, %struct.LockInfoData, ptr, ptr, ptr, ptr, ptr, i8, ptr, ptr, ptr, ptr, ptr, ptr, i32, ptr, i8, ptr, ptr, i32, i8, i32, ptr, i8, ptr, ptr, ptr, ptr, ptr, ptr, ptr, i32, ptr, ptr, ptr, ptr, ptr, ptr, ptr, ptr, ptr, ptr, ptr, ptr, ptr, ptr, ptr, ptr, ptr, ptr, ptr, i32, i8, ptr }
%struct.RelFileLocator = type { i32, i32, i32 }
%struct.LockInfoData = type { %struct.LockRelId }
%struct.LockRelId = type { i32, i32 }
%struct.FormData_pg_class = type { i32, %struct.nameData, i32, i32, i32, i32, i32, i32, i32, i32, float, i32, i32, i8, i8, i8, i8, i16, i16, i8, i8, i8, i8, i8, i8, i8, i8, i32, i32, i32 }
%struct.nameData = type { [64 x i8] }
%struct.IndexInfo = type { i32, i32, i32, [32 x i16], ptr, ptr, ptr, ptr, ptr, ptr, ptr, ptr, ptr, ptr, i8, i8, i8, i8, i8, i8, i8, i8, i8, i32, i32, ptr, ptr }

; Function Attrs: nounwind uwtable
define dso_local void @index_concurrently_build(i32 noundef %0, i32 noundef %1) #0 {
  %3 = alloca i32, align 4
  %4 = alloca i32, align 4
  %5 = alloca ptr, align 8
  %6 = alloca i32, align 4
  %7 = alloca i32, align 4
  %8 = alloca i32, align 4
  %9 = alloca ptr, align 8
  %10 = alloca ptr, align 8
  store i32 %0, ptr %3, align 4
  store i32 %1, ptr %4, align 4
  call void @llvm.lifetime.start.p0(i64 8, ptr %5) #8
  call void @llvm.lifetime.start.p0(i64 4, ptr %6) #8
  call void @llvm.lifetime.start.p0(i64 4, ptr %7) #8
  call void @llvm.lifetime.start.p0(i64 4, ptr %8) #8
  call void @llvm.lifetime.start.p0(i64 8, ptr %9) #8
  call void @llvm.lifetime.start.p0(i64 8, ptr %10) #8
  %11 = load i32, ptr %3, align 4
  %12 = call ptr @table_open(i32 noundef %11, i32 noundef 4)
  store ptr %12, ptr %5, align 8
  call void @GetUserIdAndSecContext(ptr noundef %6, ptr noundef %7)
  %13 = load ptr, ptr %5, align 8
  %14 = getelementptr inbounds nuw %struct.RelationData, ptr %13, i32 0, i32 13
  %15 = load ptr, ptr %14, align 8
  %16 = getelementptr inbounds nuw %struct.FormData_pg_class, ptr %15, i32 0, i32 5
  %17 = load i32, ptr %16, align 4
  %18 = load i32, ptr %7, align 4
  %19 = or i32 %18, 2
  call void @SetUserIdAndSecContext(i32 noundef %17, i32 noundef %19)
  %20 = call i32 @NewGUCNestLevel()
  store i32 %20, ptr %8, align 4
  call void @RestrictSearchPath()
  %21 = load i32, ptr %4, align 4
  %22 = call ptr @index_open(i32 noundef %21, i32 noundef 3)
  store ptr %22, ptr %9, align 8
  %23 = load ptr, ptr %9, align 8
  %24 = call ptr @BuildIndexInfo(ptr noundef %23)
  store ptr %24, ptr %10, align 8
  %25 = load ptr, ptr %10, align 8
  %26 = getelementptr inbounds nuw %struct.IndexInfo, ptr %25, i32 0, i32 19
  store i8 1, ptr %26, align 1
  %27 = load ptr, ptr %10, align 8
  %28 = getelementptr inbounds nuw %struct.IndexInfo, ptr %27, i32 0, i32 20
  store i8 0, ptr %28, align 2
  %29 = load ptr, ptr %5, align 8
  %30 = load ptr, ptr %9, align 8
  %31 = load ptr, ptr %10, align 8
  call void @index_build(ptr noundef %29, ptr noundef %30, ptr noundef %31, i1 noundef zeroext false, i1 noundef zeroext true)
  %32 = load i32, ptr %8, align 4
  call void @AtEOXact_GUC(i1 noundef zeroext false, i32 noundef %32)
  %33 = load i32, ptr %6, align 4
  %34 = load i32, ptr %7, align 4
  call void @SetUserIdAndSecContext(i32 noundef %33, i32 noundef %34)
  %35 = load ptr, ptr %5, align 8
  call void @table_close(ptr noundef %35, i32 noundef 0)
  %36 = load ptr, ptr %9, align 8
  call void @index_close(ptr noundef %36, i32 noundef 0)
  %37 = load i32, ptr %4, align 4
  call void @index_set_state_flags(i32 noundef %37, i32 noundef 0)
  call void @llvm.lifetime.end.p0(i64 8, ptr %10) #8
  call void @llvm.lifetime.end.p0(i64 8, ptr %9) #8
  call void @llvm.lifetime.end.p0(i64 4, ptr %8) #8
  call void @llvm.lifetime.end.p0(i64 4, ptr %7) #8
  call void @llvm.lifetime.end.p0(i64 4, ptr %6) #8
  call void @llvm.lifetime.end.p0(i64 8, ptr %5) #8
  ret void
}