; Function Attrs: nounwind uwtable
define dso_local void @index_concurrently_build(i32 noundef %0, i32 noundef %1) local_unnamed_addr #0 {
  %3 = alloca i32, align 4
  %4 = alloca i32, align 4
  call void @llvm.lifetime.start.p0(i64 4, ptr nonnull %3) #11
  call void @llvm.lifetime.start.p0(i64 4, ptr nonnull %4) #11
  %5 = tail call ptr @table_open(i32 noundef %0, i32 noundef 4) #11
  call void @GetUserIdAndSecContext(ptr noundef nonnull %3, ptr noundef nonnull %4) #11
  %6 = getelementptr inbounds nuw i8, ptr %5, i64 56
  %7 = load ptr, ptr %6, align 8
  %8 = getelementptr inbounds nuw i8, ptr %7, i64 80
  %9 = load i32, ptr %8, align 4
  %10 = load i32, ptr %4, align 4
  %11 = or i32 %10, 2
  call void @SetUserIdAndSecContext(i32 noundef %9, i32 noundef %11) #11
  %12 = call i32 @NewGUCNestLevel() #11
  call void @RestrictSearchPath() #11
  %13 = call ptr @index_open(i32 noundef %1, i32 noundef 3) #11
  %14 = call ptr @BuildIndexInfo(ptr noundef %13)
  %15 = getelementptr inbounds nuw i8, ptr %14, i64 165
  store i8 1, ptr %15, align 1
  %16 = getelementptr inbounds nuw i8, ptr %14, i64 166
  store i8 0, ptr %16, align 2
  call void @index_build(ptr noundef %5, ptr noundef %13, ptr noundef %14, i1 noundef zeroext false, i1 noundef zeroext true)
  call void @AtEOXact_GUC(i1 noundef zeroext false, i32 noundef %12) #11
  %17 = load i32, ptr %3, align 4
  %18 = load i32, ptr %4, align 4
  call void @SetUserIdAndSecContext(i32 noundef %17, i32 noundef %18) #11
  call void @table_close(ptr noundef %5, i32 noundef 0) #11
  call void @index_close(ptr noundef %13, i32 noundef 0) #11
  call void @index_set_state_flags(i32 noundef %1, i32 noundef 0)
  call void @llvm.lifetime.end.p0(i64 4, ptr nonnull %4) #11
  call void @llvm.lifetime.end.p0(i64 4, ptr nonnull %3) #11
  ret void
}